; Function Attrs: nounwind uwtable
define nonnull ptr @lv_cache_entry_alloc(i32 noundef %0, ptr noundef %1) local_unnamed_addr #6 {
  %3 = add i32 %0, 24
  %4 = zext i32 %3 to i64
  %5 = tail call ptr @lv_malloc_zeroed(i64 noundef %4) #9
  %.not = icmp eq ptr %5, null
  br i1 %.not, label %.preheader, label %6

.preheader:                                       ; preds = %2, %.preheader
  br label %.preheader

6:                                                ; preds = %2
  %.not8.i = icmp eq ptr %1, null
  br i1 %.not8.i, label %.preheader9.i, label %lv_cache_entry_init.exit

.preheader9.i:                                    ; preds = %6, %.preheader9.i
  br label %.preheader9.i

lv_cache_entry_init.exit:                         ; preds = %6
  store ptr %1, ptr %5, align 8, !tbaa !15
  %7 = getelementptr inbounds nuw i8, ptr %5, i64 12
  store i32 %0, ptr %7, align 4, !tbaa !11
  %8 = getelementptr inbounds nuw i8, ptr %5, i64 8
  store i32 0, ptr %8, align 8, !tbaa !3
  %9 = getelementptr inbounds nuw i8, ptr %5, i64 16
  store i8 0, ptr %9, align 8, !tbaa !12
  %10 = zext i32 %0 to i64
  %11 = getelementptr inbounds nuw i8, ptr %5, i64 %10
  ret ptr %11
}